target datalayout = "e-m:e-p270:32:32-p271:32:32-p272:64:64-i64:64-i128:128-f80:128-n8:16:32:64-S128"
target triple = "x86_64-pc-linux-gnu"

%"class.icu_77::RBBISymbolTable" = type <{ %"class.icu_77::SymbolTable", ptr, ptr, ptr, %"class.icu_77::UnicodeString", ptr, i32, [4 x i8] }>
%"class.icu_77::SymbolTable" = type { ptr }
%"class.icu_77::UnicodeString" = type { %"class.icu_77::Replaceable", %"union.icu_77::UnicodeString::StackBufferOrFields" }
%"class.icu_77::Replaceable" = type { %"class.icu_77::UObject" }
%"class.icu_77::UObject" = type { ptr }
%"union.icu_77::UnicodeString::StackBufferOrFields" = type { %struct.anon.0, [32 x i8] }
%struct.anon.0 = type { i16, i32, i32, ptr }

@_ZTVN6icu_7711SymbolTableE = available_externally unnamed_addr constant { [7 x ptr] } { [7 x ptr] [ptr null, ptr @_ZTIN6icu_7711SymbolTableE, ptr @_ZN6icu_7711SymbolTableD1Ev, ptr @_ZN6icu_7711SymbolTableD0Ev, ptr @__cxa_pure_virtual, ptr @__cxa_pure_virtual, ptr @__cxa_pure_virtual] }, align 8

; Function Attrs: inlinehint mustprogress nounwind uwtable
define internal noundef signext i8 @_ZL9U_FAILURE10UErrorCode(i32 noundef %0) #2 {
  %2 = alloca i32, align 4
  store i32 %0, ptr %2, align 4, !tbaa !15
  %3 = load i32, ptr %2, align 4, !tbaa !15
  %4 = icmp sgt i32 %3, 0
  %5 = zext i1 %4 to i8
  ret i8 %5
}

; Function Attrs: inlinehint mustprogress nounwind uwtable
define linkonce_odr void @_ZN6icu_7711SymbolTableC2Ev(ptr noundef nonnull align 8 dereferenceable(8) %0) unnamed_addr #2 comdat align 2 {
  %2 = alloca ptr, align 8
  store ptr %0, ptr %2, align 8, !tbaa !41
  %3 = load ptr, ptr %2, align 8
  store ptr getelementptr inbounds inrange(-16, 40) ({ [7 x ptr] }, ptr @_ZTVN6icu_7711SymbolTableE, i32 0, i32 0, i32 2), ptr %3, align 8, !tbaa !29
  ret void
}

; Function Attrs: mustprogress uwtable
define void @_ZN6icu_7715RBBISymbolTableC2EPNS_15RBBIRuleScannerERKNS_13UnicodeStringER10UErrorCode(ptr noundef nonnull align 8 dereferenceable(108) %0, ptr noundef %1, ptr noundef nonnull align 8 dereferenceable(64) %2, ptr noundef nonnull align 4 dereferenceable(4) %3) unnamed_addr #1 align 2 personality ptr @__gxx_personality_v0 {
  %5 = alloca ptr, align 8
  %6 = alloca ptr, align 8
  %7 = alloca ptr, align 8
  %8 = alloca ptr, align 8
  %9 = alloca ptr, align 8
  %10 = alloca i32, align 4
  store ptr %0, ptr %5, align 8, !tbaa !23
  store ptr %1, ptr %6, align 8, !tbaa !25
  store ptr %2, ptr %7, align 8, !tbaa !27
  store ptr %3, ptr %8, align 8, !tbaa !22
  %11 = load ptr, ptr %5, align 8
  call void @_ZN6icu_7711SymbolTableC2Ev(ptr noundef nonnull align 8 dereferenceable(8) %11) #10
  store ptr getelementptr inbounds inrange(-16, 56) ({ [9 x ptr] }, ptr @_ZTVN6icu_7715RBBISymbolTableE, i32 0, i32 0, i32 2), ptr %11, align 8, !tbaa !29
  %12 = getelementptr inbounds nuw %"class.icu_77::RBBISymbolTable", ptr %11, i32 0, i32 1
  %13 = load ptr, ptr %7, align 8, !tbaa !27
  store ptr %13, ptr %12, align 8, !tbaa !27
  %14 = getelementptr inbounds nuw %"class.icu_77::RBBISymbolTable", ptr %11, i32 0, i32 3
  %15 = load ptr, ptr %6, align 8, !tbaa !25
  store ptr %15, ptr %14, align 8, !tbaa !31
  %16 = getelementptr inbounds nuw %"class.icu_77::RBBISymbolTable", ptr %11, i32 0, i32 4
  invoke void @_ZN6icu_7713UnicodeStringC1EDs(ptr noundef nonnull align 8 dereferenceable(64) %16, i16 noundef zeroext -1)
          to label %17 unwind label %30

17:                                               ; preds = %4
  %18 = getelementptr inbounds nuw %"class.icu_77::RBBISymbolTable", ptr %11, i32 0, i32 2
  store ptr null, ptr %18, align 8, !tbaa !39
  %19 = getelementptr inbounds nuw %"class.icu_77::RBBISymbolTable", ptr %11, i32 0, i32 5
  store ptr null, ptr %19, align 8, !tbaa !40
  %20 = load ptr, ptr %8, align 8, !tbaa !22
  %21 = invoke ptr @uhash_open_77(ptr noundef @uhash_hashUnicodeString_77, ptr noundef @uhash_compareUnicodeString_77, ptr noundef null, ptr noundef %20)
          to label %22 unwind label %34

22:                                               ; preds = %17
  %23 = getelementptr inbounds nuw %"class.icu_77::RBBISymbolTable", ptr %11, i32 0, i32 2
  store ptr %21, ptr %23, align 8, !tbaa !39
  %24 = load ptr, ptr %8, align 8, !tbaa !22
  %25 = load i32, ptr %24, align 4, !tbaa !15
  %26 = invoke noundef signext i8 @_ZL9U_FAILURE10UErrorCode(i32 noundef %25)
          to label %27 unwind label %34

27:                                               ; preds = %22
  %28 = icmp ne i8 %26, 0
  br i1 %28, label %29, label %38

29:                                               ; preds = %27
  br label %42

30:                                               ; preds = %4
  %31 = landingpad { ptr, i32 }
          cleanup
  %32 = extractvalue { ptr, i32 } %31, 0
  store ptr %32, ptr %9, align 8
  %33 = extractvalue { ptr, i32 } %31, 1
  store i32 %33, ptr %10, align 4
  br label %43

34:                                               ; preds = %38, %22, %17
  %35 = landingpad { ptr, i32 }
          cleanup
  %36 = extractvalue { ptr, i32 } %35, 0
  store ptr %36, ptr %9, align 8
  %37 = extractvalue { ptr, i32 } %35, 1
  store i32 %37, ptr %10, align 4
  call void @_ZN6icu_7713UnicodeStringD1Ev(ptr noundef nonnull align 8 dereferenceable(64) %16) #10
  br label %43

38:                                               ; preds = %27
  %39 = getelementptr inbounds nuw %"class.icu_77::RBBISymbolTable", ptr %11, i32 0, i32 2
  %40 = load ptr, ptr %39, align 8, !tbaa !39
  %41 = invoke ptr @uhash_setValueDeleter_77(ptr noundef %40, ptr noundef @_ZL28RBBISymbolTableEntry_deleterPv)
          to label %42 unwind label %34

42:                                               ; preds = %29, %38
  ret void

43:                                               ; preds = %34, %30
  call void @_ZN6icu_7711SymbolTableD2Ev(ptr noundef nonnull align 8 dereferenceable(8) %11) #10
  br label %44

44:                                               ; preds = %43
  %45 = load ptr, ptr %9, align 8
  %46 = load i32, ptr %10, align 4
  %47 = insertvalue { ptr, i32 } poison, ptr %45, 0
  %48 = insertvalue { ptr, i32 } %47, i32 %46, 1
  resume { ptr, i32 } %48
}