; Function Attrs: mustprogress uwtable
define void @_ZN6icu_7715RBBISymbolTableC2EPNS_15RBBIRuleScannerERKNS_13UnicodeStringER10UErrorCode(ptr noundef nonnull align 8 dereferenceable(108) initializes((0, 16), (24, 32)) %0, ptr noundef %1, ptr noundef nonnull align 8 dereferenceable(64) %2, ptr noundef nonnull align 4 dereferenceable(4) %3) unnamed_addr #1 align 2 personality ptr @__gxx_personality_v0 {
  store ptr getelementptr inbounds nuw inrange(-16, 56) (i8, ptr @_ZTVN6icu_7715RBBISymbolTableE, i64 16), ptr %0, align 8, !tbaa !15
  %5 = getelementptr inbounds nuw i8, ptr %0, i64 8
  store ptr %2, ptr %5, align 8, !tbaa !17
  %6 = getelementptr inbounds nuw i8, ptr %0, i64 24
  store ptr %1, ptr %6, align 8, !tbaa !19
  %7 = getelementptr inbounds nuw i8, ptr %0, i64 32
  invoke void @_ZN6icu_7713UnicodeStringC1EDs(ptr noundef nonnull align 8 dereferenceable(64) %7, i16 noundef zeroext -1)
          to label %8 unwind label %15

8:                                                ; preds = %4
  %9 = getelementptr inbounds nuw i8, ptr %0, i64 16
  store ptr null, ptr %9, align 8, !tbaa !28
  %10 = getelementptr inbounds nuw i8, ptr %0, i64 96
  store ptr null, ptr %10, align 8, !tbaa !29
  %11 = invoke ptr @uhash_open_77(ptr noundef nonnull @uhash_hashUnicodeString_77, ptr noundef nonnull @uhash_compareUnicodeString_77, ptr noundef null, ptr noundef nonnull %3)
          to label %12 unwind label %17

12:                                               ; preds = %8
  store ptr %11, ptr %9, align 8, !tbaa !28
  %13 = load i32, ptr %3, align 4, !tbaa !13
  %14 = icmp slt i32 %13, 1
  br i1 %14, label %19, label %21

15:                                               ; preds = %4
  %16 = landingpad { ptr, i32 }
          cleanup
  br label %22

17:                                               ; preds = %19, %8
  %18 = landingpad { ptr, i32 }
          cleanup
  tail call void @_ZN6icu_7713UnicodeStringD1Ev(ptr noundef nonnull align 8 dereferenceable(64) %7) #13
  br label %22

19:                                               ; preds = %12
  %20 = invoke ptr @uhash_setValueDeleter_77(ptr noundef %11, ptr noundef nonnull @_ZL28RBBISymbolTableEntry_deleterPv)
          to label %21 unwind label %17

21:                                               ; preds = %12, %19
  ret void

22:                                               ; preds = %17, %15
  %.pn = phi { ptr, i32 } [ %18, %17 ], [ %16, %15 ]
  tail call void @_ZN6icu_7711SymbolTableD2Ev(ptr noundef nonnull align 8 dereferenceable(8) %0) #13
  resume { ptr, i32 } %.pn
}